target datalayout = "e-m:e-p270:32:32-p271:32:32-p272:64:64-i64:64-i128:128-f80:128-n8:16:32:64-S128"
target triple = "x86_64-pc-linux-gnu"

%"class.sat::cut_set" = type { i32, ptr, i32, i32, ptr }
%"class.sat::cut" = type { i32, i32, [5 x i32], i64, i64 }
%"class.std::function" = type { %"class.std::_Function_base", ptr }
%"class.std::_Function_base" = type { %"union.std::_Any_data", ptr }
%"union.std::_Any_data" = type { %"union.std::_Nocopy_types" }
%"union.std::_Nocopy_types" = type { { i64, i64 } }

; Function Attrs: noinline noreturn nounwind uwtable
define linkonce_odr hidden void @__clang_call_terminate(ptr noundef %0) #11 comdat {
  %2 = call ptr @__cxa_begin_catch(ptr %0) #3
  call void @_ZSt9terminatev() #17
  unreachable
}

; Function Attrs: mustprogress nounwind uwtable
define linkonce_odr hidden noundef zeroext i1 @_ZNKSt14_Function_base8_M_emptyEv(ptr noundef nonnull align 8 dereferenceable(24) %0) #6 comdat align 2 {
  %2 = alloca ptr, align 8
  store ptr %0, ptr %2, align 8, !tbaa !122
  %3 = load ptr, ptr %2, align 8
  %4 = getelementptr inbounds nuw %"class.std::_Function_base", ptr %3, i32 0, i32 1
  %5 = load ptr, ptr %4, align 8, !tbaa !124
  %6 = icmp ne ptr %5, null
  %7 = xor i1 %6, true
  ret i1 %7
}

; Function Attrs: mustprogress nounwind uwtable
define linkonce_odr hidden noundef i32 @_ZNK3sat3cutixEj(ptr noundef nonnull align 8 dereferenceable(48) %0, i32 noundef %1) #6 comdat align 2 {
  %3 = alloca ptr, align 8
  %4 = alloca i32, align 4
  store ptr %0, ptr %3, align 8, !tbaa !10
  store i32 %1, ptr %4, align 4, !tbaa !12
  %5 = load ptr, ptr %3, align 8
  %6 = load i32, ptr %4, align 4, !tbaa !12
  %7 = getelementptr inbounds nuw %"class.sat::cut", ptr %5, i32 0, i32 1
  %8 = load i32, ptr %7, align 4, !tbaa !59
  %9 = icmp uge i32 %6, %8
  br i1 %9, label %10, label %11

10:                                               ; preds = %2
  br label %17

11:                                               ; preds = %2
  %12 = getelementptr inbounds nuw %"class.sat::cut", ptr %5, i32 0, i32 2
  %13 = load i32, ptr %4, align 4, !tbaa !12
  %14 = zext i32 %13 to i64
  %15 = getelementptr inbounds nuw [5 x i32], ptr %12, i64 0, i64 %14
  %16 = load i32, ptr %15, align 4, !tbaa !12
  br label %17

17:                                               ; preds = %11, %10
  %18 = phi i32 [ -1, %10 ], [ %16, %11 ]
  ret i32 %18
}

; Function Attrs: mustprogress nounwind uwtable
define linkonce_odr hidden noundef i64 @_ZNK3sat3cut10table_maskEv(ptr noundef nonnull align 8 dereferenceable(48) %0) #6 comdat align 2 {
  %2 = alloca ptr, align 8
  store ptr %0, ptr %2, align 8, !tbaa !10
  %3 = load ptr, ptr %2, align 8
  %4 = getelementptr inbounds nuw %"class.sat::cut", ptr %3, i32 0, i32 1
  %5 = load i32, ptr %4, align 4, !tbaa !59
  %6 = zext i32 %5 to i64
  %7 = shl i64 1, %6
  %8 = shl i64 1, %7
  %9 = sub i64 %8, 1
  ret i64 %9
}

; Function Attrs: mustprogress uwtable
define linkonce_odr hidden void @_ZNKSt8functionIFvjRKN3sat3cutEEEclEjS3_(ptr noundef nonnull align 8 dereferenceable(32) %0, i32 noundef %1, ptr noundef nonnull align 8 dereferenceable(48) %2) #4 comdat align 2 {
  %4 = alloca ptr, align 8
  %5 = alloca i32, align 4
  %6 = alloca ptr, align 8
  store ptr %0, ptr %4, align 8, !tbaa !8
  store i32 %1, ptr %5, align 4, !tbaa !12
  store ptr %2, ptr %6, align 8, !tbaa !10
  %7 = load ptr, ptr %4, align 8
  %8 = call noundef zeroext i1 @_ZNKSt14_Function_base8_M_emptyEv(ptr noundef nonnull align 8 dereferenceable(24) %7)
  br i1 %8, label %9, label %10

9:                                                ; preds = %3
  call void @_ZSt25__throw_bad_function_callv() #18
  unreachable

10:                                               ; preds = %3
  %11 = getelementptr inbounds nuw %"class.std::function", ptr %7, i32 0, i32 1
  %12 = load ptr, ptr %11, align 8, !tbaa !61
  %13 = getelementptr inbounds nuw %"class.std::_Function_base", ptr %7, i32 0, i32 0
  %14 = load ptr, ptr %6, align 8, !tbaa !10
  call void %12(ptr noundef nonnull align 8 dereferenceable(16) %13, ptr noundef nonnull align 4 dereferenceable(4) %5, ptr noundef nonnull align 8 dereferenceable(48) %14)
  ret void
}

; Function Attrs: mustprogress nounwind uwtable
define linkonce_odr hidden noundef zeroext i1 @_ZNKSt8functionIFvjRKN3sat3cutEEEcvbEv(ptr noundef nonnull align 8 dereferenceable(32) %0) #6 comdat align 2 personality ptr @__gxx_personality_v0 {
  %2 = alloca ptr, align 8
  store ptr %0, ptr %2, align 8, !tbaa !8
  %3 = load ptr, ptr %2, align 8
  %4 = invoke noundef zeroext i1 @_ZNKSt14_Function_base8_M_emptyEv(ptr noundef nonnull align 8 dereferenceable(24) %3)
          to label %5 unwind label %7

5:                                                ; preds = %1
  %6 = xor i1 %4, true
  ret i1 %6

7:                                                ; preds = %1
  %8 = landingpad { ptr, i32 }
          catch ptr null
  %9 = extractvalue { ptr, i32 } %8, 0
  call void @__clang_call_terminate(ptr %9) #17
  unreachable
}

; Function Attrs: mustprogress uwtable
define hidden noundef zeroext i1 @_ZNK3sat3cut6dom_eqERKS0_(ptr noundef nonnull align 8 dereferenceable(48) %0, ptr noundef nonnull align 8 dereferenceable(48) %1) #4 align 2 {
  %3 = alloca i1, align 1
  %4 = alloca ptr, align 8
  %5 = alloca ptr, align 8
  %6 = alloca i32, align 4
  %7 = alloca i32, align 4
  store ptr %0, ptr %4, align 8, !tbaa !10
  store ptr %1, ptr %5, align 8, !tbaa !10
  %8 = load ptr, ptr %4, align 8
  %9 = getelementptr inbounds nuw %"class.sat::cut", ptr %8, i32 0, i32 1
  %10 = load i32, ptr %9, align 4, !tbaa !59
  %11 = load ptr, ptr %5, align 8, !tbaa !10
  %12 = getelementptr inbounds nuw %"class.sat::cut", ptr %11, i32 0, i32 1
  %13 = load i32, ptr %12, align 4, !tbaa !59
  %14 = icmp ne i32 %10, %13
  br i1 %14, label %15, label %16

15:                                               ; preds = %2
  store i1 false, ptr %3, align 1
  br label %38

16:                                               ; preds = %2
  call void @llvm.lifetime.start.p0(i64 4, ptr %6) #3
  store i32 0, ptr %6, align 4, !tbaa !12
  br label %17

17:                                               ; preds = %32, %16
  %18 = load i32, ptr %6, align 4, !tbaa !12
  %19 = getelementptr inbounds nuw %"class.sat::cut", ptr %8, i32 0, i32 1
  %20 = load i32, ptr %19, align 4, !tbaa !59
  %21 = icmp ult i32 %18, %20
  br i1 %21, label %23, label %22

22:                                               ; preds = %17
  store i32 2, ptr %7, align 4
  br label %35

23:                                               ; preds = %17
  %24 = load i32, ptr %6, align 4, !tbaa !12
  %25 = call noundef i32 @_ZNK3sat3cutixEj(ptr noundef nonnull align 8 dereferenceable(48) %8, i32 noundef %24)
  %26 = load ptr, ptr %5, align 8, !tbaa !10
  %27 = load i32, ptr %6, align 4, !tbaa !12
  %28 = call noundef i32 @_ZNK3sat3cutixEj(ptr noundef nonnull align 8 dereferenceable(48) %26, i32 noundef %27)
  %29 = icmp ne i32 %25, %28
  br i1 %29, label %30, label %31

30:                                               ; preds = %23
  store i1 false, ptr %3, align 1
  store i32 1, ptr %7, align 4
  br label %35

31:                                               ; preds = %23
  br label %32

32:                                               ; preds = %31
  %33 = load i32, ptr %6, align 4, !tbaa !12
  %34 = add i32 %33, 1
  store i32 %34, ptr %6, align 4, !tbaa !12
  br label %17, !llvm.loop !72

35:                                               ; preds = %30, %22
  call void @llvm.lifetime.end.p0(i64 4, ptr %6) #3
  %36 = load i32, ptr %7, align 4
  switch i32 %36, label %40 [
    i32 2, label %37
    i32 1, label %38
  ]

37:                                               ; preds = %35
  store i1 true, ptr %3, align 1
  br label %38

38:                                               ; preds = %37, %35, %15
  %39 = load i1, ptr %3, align 1
  ret i1 %39

40:                                               ; preds = %35
  unreachable
}

; Function Attrs: mustprogress uwtable
define linkonce_odr hidden noundef i64 @_ZNK3sat3cut5tableEv(ptr noundef nonnull align 8 dereferenceable(48) %0) #4 comdat align 2 {
  %2 = alloca ptr, align 8
  store ptr %0, ptr %2, align 8, !tbaa !10
  %3 = load ptr, ptr %2, align 8
  %4 = getelementptr inbounds nuw %"class.sat::cut", ptr %3, i32 0, i32 3
  %5 = load i64, ptr %4, align 8, !tbaa !65
  %6 = getelementptr inbounds nuw %"class.sat::cut", ptr %3, i32 0, i32 4
  %7 = load i64, ptr %6, align 8, !tbaa !66
  %8 = or i64 %5, %7
  %9 = call noundef i64 @_ZNK3sat3cut10table_maskEv(ptr noundef nonnull align 8 dereferenceable(48) %3)
  %10 = and i64 %8, %9
  ret i64 %10
}

; Function Attrs: mustprogress uwtable
define hidden void @_ZN3sat7cut_set5evictERSt8functionIFvjRKNS_3cutEEEj(ptr noundef nonnull align 8 dereferenceable(32) %0, ptr noundef nonnull align 8 dereferenceable(32) %1, i32 noundef %2) #4 align 2 {
  %4 = alloca ptr, align 8
  %5 = alloca ptr, align 8
  %6 = alloca i32, align 4
  store ptr %0, ptr %4, align 8, !tbaa !3
  store ptr %1, ptr %5, align 8, !tbaa !8
  store i32 %2, ptr %6, align 4, !tbaa !12
  %7 = load ptr, ptr %4, align 8
  %8 = getelementptr inbounds nuw %"class.sat::cut_set", ptr %7, i32 0, i32 0
  %9 = load i32, ptr %8, align 8, !tbaa !31
  %10 = icmp ne i32 %9, -1
  br i1 %10, label %11, label %23

11:                                               ; preds = %3
  %12 = load ptr, ptr %5, align 8, !tbaa !8
  %13 = call noundef zeroext i1 @_ZNKSt8functionIFvjRKN3sat3cutEEEcvbEv(ptr noundef nonnull align 8 dereferenceable(32) %12) #3
  br i1 %13, label %14, label %23

14:                                               ; preds = %11
  %15 = load ptr, ptr %5, align 8, !tbaa !8
  %16 = getelementptr inbounds nuw %"class.sat::cut_set", ptr %7, i32 0, i32 0
  %17 = load i32, ptr %16, align 8, !tbaa !31
  %18 = getelementptr inbounds nuw %"class.sat::cut_set", ptr %7, i32 0, i32 4
  %19 = load ptr, ptr %18, align 8, !tbaa !17
  %20 = load i32, ptr %6, align 4, !tbaa !12
  %21 = zext i32 %20 to i64
  %22 = getelementptr inbounds nuw %"class.sat::cut", ptr %19, i64 %21
  call void @_ZNKSt8functionIFvjRKN3sat3cutEEEclEjS3_(ptr noundef nonnull align 8 dereferenceable(32) %15, i32 noundef %17, ptr noundef nonnull align 8 dereferenceable(48) %22)
  br label %23

23:                                               ; preds = %14, %11, %3
  %24 = getelementptr inbounds nuw %"class.sat::cut_set", ptr %7, i32 0, i32 4
  %25 = load ptr, ptr %24, align 8, !tbaa !17
  %26 = getelementptr inbounds nuw %"class.sat::cut_set", ptr %7, i32 0, i32 2
  %27 = load i32, ptr %26, align 8, !tbaa !14
  %28 = add i32 %27, -1
  store i32 %28, ptr %26, align 8, !tbaa !14
  %29 = zext i32 %28 to i64
  %30 = getelementptr inbounds nuw %"class.sat::cut", ptr %25, i64 %29
  %31 = getelementptr inbounds nuw %"class.sat::cut_set", ptr %7, i32 0, i32 4
  %32 = load ptr, ptr %31, align 8, !tbaa !17
  %33 = load i32, ptr %6, align 4, !tbaa !12
  %34 = zext i32 %33 to i64
  %35 = getelementptr inbounds nuw %"class.sat::cut", ptr %32, i64 %34
  call void @llvm.memcpy.p0.p0.i64(ptr align 8 %35, ptr align 8 %30, i64 48, i1 false), !tbaa.struct !26
  ret void
}

; Function Attrs: mustprogress uwtable
define hidden noundef zeroext i1 @_ZNK3sat3cuteqERKS0_(ptr noundef nonnull align 8 dereferenceable(48) %0, ptr noundef nonnull align 8 dereferenceable(48) %1) #4 align 2 {
  %3 = alloca ptr, align 8
  %4 = alloca ptr, align 8
  store ptr %0, ptr %3, align 8, !tbaa !10
  store ptr %1, ptr %4, align 8, !tbaa !10
  %5 = load ptr, ptr %3, align 8
  %6 = call noundef i64 @_ZNK3sat3cut5tableEv(ptr noundef nonnull align 8 dereferenceable(48) %5)
  %7 = load ptr, ptr %4, align 8, !tbaa !10
  %8 = call noundef i64 @_ZNK3sat3cut5tableEv(ptr noundef nonnull align 8 dereferenceable(48) %7)
  %9 = icmp eq i64 %6, %8
  br i1 %9, label %10, label %13

10:                                               ; preds = %2
  %11 = load ptr, ptr %4, align 8, !tbaa !10
  %12 = call noundef zeroext i1 @_ZNK3sat3cut6dom_eqERKS0_(ptr noundef nonnull align 8 dereferenceable(48) %5, ptr noundef nonnull align 8 dereferenceable(48) %11)
  br label %13

13:                                               ; preds = %10, %2
  %14 = phi i1 [ false, %2 ], [ %12, %10 ]
  ret i1 %14
}

; Function Attrs: mustprogress uwtable
define hidden void @_ZN3sat7cut_set5evictERSt8functionIFvjRKNS_3cutEEES4_(ptr noundef nonnull align 8 dereferenceable(32) %0, ptr noundef nonnull align 8 dereferenceable(32) %1, ptr noundef nonnull align 8 dereferenceable(48) %2) #4 align 2 {
  %4 = alloca ptr, align 8
  %5 = alloca ptr, align 8
  %6 = alloca ptr, align 8
  %7 = alloca i32, align 4
  %8 = alloca i32, align 4
  store ptr %0, ptr %4, align 8, !tbaa !3
  store ptr %1, ptr %5, align 8, !tbaa !8
  store ptr %2, ptr %6, align 8, !tbaa !10
  %9 = load ptr, ptr %4, align 8
  call void @llvm.lifetime.start.p0(i64 4, ptr %7) #3
  store i32 0, ptr %7, align 4, !tbaa !12
  br label %10

10:                                               ; preds = %28, %3
  %11 = load i32, ptr %7, align 4, !tbaa !12
  %12 = getelementptr inbounds nuw %"class.sat::cut_set", ptr %9, i32 0, i32 2
  %13 = load i32, ptr %12, align 8, !tbaa !14
  %14 = icmp ult i32 %11, %13
  br i1 %14, label %16, label %15

15:                                               ; preds = %10
  store i32 2, ptr %8, align 4
  br label %31

16:                                               ; preds = %10
  %17 = getelementptr inbounds nuw %"class.sat::cut_set", ptr %9, i32 0, i32 4
  %18 = load ptr, ptr %17, align 8, !tbaa !17
  %19 = load i32, ptr %7, align 4, !tbaa !12
  %20 = zext i32 %19 to i64
  %21 = getelementptr inbounds nuw %"class.sat::cut", ptr %18, i64 %20
  %22 = load ptr, ptr %6, align 8, !tbaa !10
  %23 = call noundef zeroext i1 @_ZNK3sat3cuteqERKS0_(ptr noundef nonnull align 8 dereferenceable(48) %21, ptr noundef nonnull align 8 dereferenceable(48) %22)
  br i1 %23, label %24, label %27

24:                                               ; preds = %16
  %25 = load ptr, ptr %5, align 8, !tbaa !8
  %26 = load i32, ptr %7, align 4, !tbaa !12
  call void @_ZN3sat7cut_set5evictERSt8functionIFvjRKNS_3cutEEEj(ptr noundef nonnull align 8 dereferenceable(32) %9, ptr noundef nonnull align 8 dereferenceable(32) %25, i32 noundef %26)
  store i32 2, ptr %8, align 4
  br label %31

27:                                               ; preds = %16
  br label %28

28:                                               ; preds = %27
  %29 = load i32, ptr %7, align 4, !tbaa !12
  %30 = add i32 %29, 1
  store i32 %30, ptr %7, align 4, !tbaa !12
  br label %10, !llvm.loop !70

31:                                               ; preds = %24, %15
  call void @llvm.lifetime.end.p0(i64 4, ptr %7) #3
  br label %32

32:                                               ; preds = %31
  ret void
}