; Function Attrs: mustprogress uwtable
define hidden void @_ZN3sat7cut_set5evictERSt8functionIFvjRKNS_3cutEEES4_(ptr noundef nonnull align 8 captures(none) dereferenceable(32) %0, ptr noundef nonnull align 8 dereferenceable(32) %1, ptr noundef nonnull readonly align 8 captures(none) dereferenceable(48) %2) local_unnamed_addr #3 align 2 personality ptr @__gxx_personality_v0 {
  %4 = alloca i32, align 4
  %5 = getelementptr inbounds nuw i8, ptr %0, i64 16
  %6 = load i32, ptr %5, align 8, !tbaa !3
  %.not = icmp eq i32 %6, 0
  br i1 %.not, label %.loopexit7, label %.lr.ph

.lr.ph:                                           ; preds = %3
  %7 = getelementptr inbounds nuw i8, ptr %0, i64 24
  %8 = load ptr, ptr %7, align 8, !tbaa !11
  %9 = getelementptr inbounds nuw i8, ptr %2, i64 32
  %10 = load i64, ptr %9, align 8, !tbaa !44
  %11 = getelementptr inbounds nuw i8, ptr %2, i64 40
  %12 = load i64, ptr %11, align 8, !tbaa !45
  %13 = or i64 %12, %10
  %14 = getelementptr inbounds nuw i8, ptr %2, i64 4
  %15 = load i32, ptr %14, align 4, !tbaa !15
  %16 = zext nneg i32 %15 to i64
  %17 = shl nuw i64 1, %16
  %notmask.i.i3.i = shl nsw i64 -1, %17
  %18 = xor i64 %notmask.i.i3.i, -1
  %19 = and i64 %13, %18
  %20 = getelementptr inbounds nuw i8, ptr %2, i64 8
  %wide.trip.count = zext i32 %6 to i64
  %21 = icmp eq i32 %15, 0
  br label %22

22:                                               ; preds = %.lr.ph, %_ZNK3sat3cuteqERKS0_.exit
  %indvars.iv = phi i64 [ 0, %.lr.ph ], [ %indvars.iv.next, %_ZNK3sat3cuteqERKS0_.exit ]
  %23 = getelementptr inbounds nuw %"class.sat::cut", ptr %8, i64 %indvars.iv
  %24 = getelementptr inbounds nuw i8, ptr %23, i64 32
  %25 = load i64, ptr %24, align 8, !tbaa !44
  %26 = getelementptr inbounds nuw i8, ptr %23, i64 40
  %27 = load i64, ptr %26, align 8, !tbaa !45
  %28 = or i64 %27, %25
  %29 = getelementptr inbounds nuw i8, ptr %23, i64 4
  %30 = load i32, ptr %29, align 4, !tbaa !15
  %31 = zext nneg i32 %30 to i64
  %32 = shl nuw i64 1, %31
  %notmask.i.i.i = shl nsw i64 -1, %32
  %33 = xor i64 %notmask.i.i.i, -1
  %34 = and i64 %28, %33
  %35 = icmp eq i64 %34, %19
  %.not.i.i = icmp eq i32 %30, %15
  %or.cond.i = and i1 %.not.i.i, %35
  br i1 %or.cond.i, label %.preheader.i.i, label %_ZNK3sat3cuteqERKS0_.exit

.preheader.i.i:                                   ; preds = %22
  br i1 %21, label %.loopexit, label %_ZNK3sat3cutixEj.exit.lr.ph.i.i

_ZNK3sat3cutixEj.exit.lr.ph.i.i:                  ; preds = %.preheader.i.i
  %36 = getelementptr inbounds nuw i8, ptr %23, i64 8
  br label %_ZNK3sat3cutixEj.exit.i.i

37:                                               ; preds = %_ZNK3sat3cutixEj.exit.i.i
  %indvars.iv.next.i.i = add nuw nsw i64 %indvars.iv.i.i, 1
  %exitcond.not.i.i = icmp eq i64 %indvars.iv.next.i.i, %31
  br i1 %exitcond.not.i.i, label %.loopexit, label %_ZNK3sat3cutixEj.exit.i.i, !llvm.loop !46

_ZNK3sat3cutixEj.exit.i.i:                        ; preds = %37, %_ZNK3sat3cutixEj.exit.lr.ph.i.i
  %indvars.iv.i.i = phi i64 [ 0, %_ZNK3sat3cutixEj.exit.lr.ph.i.i ], [ %indvars.iv.next.i.i, %37 ]
  %38 = getelementptr inbounds nuw [5 x i32], ptr %36, i64 0, i64 %indvars.iv.i.i
  %39 = load i32, ptr %38, align 4, !tbaa !16
  %40 = getelementptr inbounds nuw [5 x i32], ptr %20, i64 0, i64 %indvars.iv.i.i
  %41 = load i32, ptr %40, align 4, !tbaa !16
  %.not10.i.i = icmp eq i32 %39, %41
  br i1 %.not10.i.i, label %37, label %_ZNK3sat3cuteqERKS0_.exit

.loopexit:                                        ; preds = %.preheader.i.i, %37
  %42 = load i32, ptr %0, align 8, !tbaa !23
  %.not.i = icmp ne i32 %42, -1
  %43 = getelementptr inbounds nuw i8, ptr %1, i64 16
  %44 = load ptr, ptr %43, align 8
  %.not.i.i.i = icmp ne ptr %44, null
  %or.cond.i6 = select i1 %.not.i, i1 %.not.i.i.i, i1 false
  br i1 %or.cond.i6, label %_ZNKSt8functionIFvjRKN3sat3cutEEEclEjS3_.exit.i, label %_ZN3sat7cut_set5evictERSt8functionIFvjRKNS_3cutEEEj.exit

_ZNKSt8functionIFvjRKN3sat3cutEEEclEjS3_.exit.i:  ; preds = %.loopexit
  call void @llvm.lifetime.start.p0(i64 4, ptr nonnull %4)
  store i32 %42, ptr %4, align 4, !tbaa !16
  %45 = getelementptr inbounds nuw i8, ptr %1, i64 24
  %46 = load ptr, ptr %45, align 8, !tbaa !26
  call void %46(ptr noundef nonnull align 8 dereferenceable(32) %1, ptr noundef nonnull align 4 dereferenceable(4) %4, ptr noundef nonnull align 8 dereferenceable(48) %23)
  call void @llvm.lifetime.end.p0(i64 4, ptr nonnull %4)
  %.pre = load ptr, ptr %7, align 8, !tbaa !11
  %.pre24 = load i32, ptr %5, align 8, !tbaa !3
  br label %_ZN3sat7cut_set5evictERSt8functionIFvjRKNS_3cutEEEj.exit

_ZN3sat7cut_set5evictERSt8functionIFvjRKNS_3cutEEEj.exit: ; preds = %.loopexit, %_ZNKSt8functionIFvjRKN3sat3cutEEEclEjS3_.exit.i
  %47 = phi i32 [ %6, %.loopexit ], [ %.pre24, %_ZNKSt8functionIFvjRKN3sat3cutEEEclEjS3_.exit.i ]
  %48 = phi ptr [ %8, %.loopexit ], [ %.pre, %_ZNKSt8functionIFvjRKN3sat3cutEEEclEjS3_.exit.i ]
  %49 = add i32 %47, -1
  store i32 %49, ptr %5, align 8, !tbaa !3
  %50 = zext i32 %49 to i64
  %51 = getelementptr inbounds nuw %"class.sat::cut", ptr %48, i64 %50
  %52 = getelementptr inbounds nuw %"class.sat::cut", ptr %48, i64 %indvars.iv
  call void @llvm.memcpy.p0.p0.i64(ptr noundef nonnull align 8 dereferenceable(48) %52, ptr noundef nonnull align 8 dereferenceable(48) %51, i64 48, i1 false), !tbaa.struct !19
  br label %.loopexit7

_ZNK3sat3cuteqERKS0_.exit:                        ; preds = %_ZNK3sat3cutixEj.exit.i.i, %22
  %indvars.iv.next = add nuw nsw i64 %indvars.iv, 1
  %exitcond.not = icmp eq i64 %indvars.iv.next, %wide.trip.count
  br i1 %exitcond.not, label %.loopexit7, label %22, !llvm.loop !52

.loopexit7:                                       ; preds = %_ZNK3sat3cuteqERKS0_.exit, %3, %_ZN3sat7cut_set5evictERSt8functionIFvjRKNS_3cutEEEj.exit
  ret void
}